; Function Attrs: mustprogress uwtable
define <2 x float> @_ZNK32pxrInternal_v0_24__pxrReserved__12GfColorSpace25GetTransferFunctionParamsEv(ptr noundef nonnull readonly align 8 captures(none) dereferenceable(16) %0) local_unnamed_addr #7 align 2 {
  %2 = alloca float, align 4
  %3 = alloca float, align 4
  %4 = load ptr, ptr %0, align 8
  %5 = load ptr, ptr %4, align 8
  call void @pxr_nc_1_0_GetK0Phi(ptr noundef %5, ptr noundef nonnull %2, ptr noundef nonnull %3)
  %6 = load float, ptr %2, align 4
  %.sroa.0.0.vec.insert.i = insertelement <2 x float> poison, float %6, i64 0
  %7 = load float, ptr %3, align 4
  %.sroa.0.4.vec.insert.i = insertelement <2 x float> %.sroa.0.0.vec.insert.i, float %7, i64 1
  ret <2 x float> %.sroa.0.4.vec.insert.i
}